target datalayout = "e-m:e-p270:32:32-p271:32:32-p272:64:64-i64:64-i128:128-f80:128-n8:16:32:64-S128"
target triple = "x86_64-pc-linux-gnu"

; Function Attrs: alwaysinline nounwind uwtable
define internal void @ma_pcm_deinterleave_s16__reference(ptr noundef %0, ptr noundef %1, i64 noundef %2, i32 noundef %3) #7 {
  %5 = alloca ptr, align 8
  %6 = alloca ptr, align 8
  %7 = alloca i64, align 8
  %8 = alloca i32, align 4
  %9 = alloca ptr, align 8
  %10 = alloca ptr, align 8
  %11 = alloca i64, align 8
  %12 = alloca i32, align 4
  store ptr %0, ptr %5, align 8, !tbaa !25
  store ptr %1, ptr %6, align 8, !tbaa !25
  store i64 %2, ptr %7, align 8, !tbaa !47
  store i32 %3, ptr %8, align 4, !tbaa !8
  call void @llvm.lifetime.start.p0(i64 8, ptr %9) #16
  %13 = load ptr, ptr %5, align 8, !tbaa !25
  store ptr %13, ptr %9, align 8, !tbaa !1860
  call void @llvm.lifetime.start.p0(i64 8, ptr %10) #16
  %14 = load ptr, ptr %6, align 8, !tbaa !25
  store ptr %14, ptr %10, align 8, !tbaa !360
  call void @llvm.lifetime.start.p0(i64 8, ptr %11) #16
  store i64 0, ptr %11, align 8, !tbaa !47
  br label %15

15:                                               ; preds = %46, %4
  %16 = load i64, ptr %11, align 8, !tbaa !47
  %17 = load i64, ptr %7, align 8, !tbaa !47
  %18 = icmp ult i64 %16, %17
  br i1 %18, label %19, label %49

19:                                               ; preds = %15
  call void @llvm.lifetime.start.p0(i64 4, ptr %12) #16
  store i32 0, ptr %12, align 4, !tbaa !8
  br label %20

20:                                               ; preds = %42, %19
  %21 = load i32, ptr %12, align 4, !tbaa !8
  %22 = load i32, ptr %8, align 4, !tbaa !8
  %23 = icmp ult i32 %21, %22
  br i1 %23, label %24, label %45

24:                                               ; preds = %20
  %25 = load ptr, ptr %10, align 8, !tbaa !360
  %26 = load i64, ptr %11, align 8, !tbaa !47
  %27 = load i32, ptr %8, align 4, !tbaa !8
  %28 = zext i32 %27 to i64
  %29 = mul i64 %26, %28
  %30 = load i32, ptr %12, align 4, !tbaa !8
  %31 = zext i32 %30 to i64
  %32 = add i64 %29, %31
  %33 = getelementptr inbounds nuw i16, ptr %25, i64 %32
  %34 = load i16, ptr %33, align 2, !tbaa !89
  %35 = load ptr, ptr %9, align 8, !tbaa !1860
  %36 = load i32, ptr %12, align 4, !tbaa !8
  %37 = zext i32 %36 to i64
  %38 = getelementptr inbounds nuw ptr, ptr %35, i64 %37
  %39 = load ptr, ptr %38, align 8, !tbaa !360
  %40 = load i64, ptr %11, align 8, !tbaa !47
  %41 = getelementptr inbounds nuw i16, ptr %39, i64 %40
  store i16 %34, ptr %41, align 2, !tbaa !89
  br label %42

42:                                               ; preds = %24
  %43 = load i32, ptr %12, align 4, !tbaa !8
  %44 = add i32 %43, 1
  store i32 %44, ptr %12, align 4, !tbaa !8
  br label %20, !llvm.loop !1864

45:                                               ; preds = %20
  call void @llvm.lifetime.end.p0(i64 4, ptr %12) #16
  br label %46

46:                                               ; preds = %45
  %47 = load i64, ptr %11, align 8, !tbaa !47
  %48 = add i64 %47, 1
  store i64 %48, ptr %11, align 8, !tbaa !47
  br label %15, !llvm.loop !1865

49:                                               ; preds = %15
  call void @llvm.lifetime.end.p0(i64 8, ptr %11) #16
  call void @llvm.lifetime.end.p0(i64 8, ptr %10) #16
  call void @llvm.lifetime.end.p0(i64 8, ptr %9) #16
  ret void
}

; Function Attrs: alwaysinline nounwind uwtable
define internal void @ma_pcm_deinterleave_s16__optimized(ptr noundef %0, ptr noundef %1, i64 noundef %2, i32 noundef %3) #7 {
  %5 = alloca ptr, align 8
  %6 = alloca ptr, align 8
  %7 = alloca i64, align 8
  %8 = alloca i32, align 4
  store ptr %0, ptr %5, align 8, !tbaa !25
  store ptr %1, ptr %6, align 8, !tbaa !25
  store i64 %2, ptr %7, align 8, !tbaa !47
  store i32 %3, ptr %8, align 4, !tbaa !8
  %9 = load ptr, ptr %5, align 8, !tbaa !25
  %10 = load ptr, ptr %6, align 8, !tbaa !25
  %11 = load i64, ptr %7, align 8, !tbaa !47
  %12 = load i32, ptr %8, align 4, !tbaa !8
  call void @ma_pcm_deinterleave_s16__reference(ptr noundef %9, ptr noundef %10, i64 noundef %11, i32 noundef %12)
  ret void
}

; Function Attrs: nounwind uwtable
define void @ma_pcm_deinterleave_s16(ptr noundef %0, ptr noundef %1, i64 noundef %2, i32 noundef %3) #0 {
  %5 = alloca ptr, align 8
  %6 = alloca ptr, align 8
  %7 = alloca i64, align 8
  %8 = alloca i32, align 4
  store ptr %0, ptr %5, align 8, !tbaa !25
  store ptr %1, ptr %6, align 8, !tbaa !25
  store i64 %2, ptr %7, align 8, !tbaa !47
  store i32 %3, ptr %8, align 4, !tbaa !8
  %9 = load ptr, ptr %5, align 8, !tbaa !25
  %10 = load ptr, ptr %6, align 8, !tbaa !25
  %11 = load i64, ptr %7, align 8, !tbaa !47
  %12 = load i32, ptr %8, align 4, !tbaa !8
  call void @ma_pcm_deinterleave_s16__optimized(ptr noundef %9, ptr noundef %10, i64 noundef %11, i32 noundef %12)
  ret void
}