; Function Attrs: nofree norecurse nosync nounwind memory(write, argmem: readwrite, inaccessiblemem: none) uwtable
define void @ma_pcm_deinterleave_s16(ptr noundef readonly captures(none) %0, ptr noundef readonly captures(none) %1, i64 noundef %2, i32 noundef %3) local_unnamed_addr #32 {
  %.not = icmp eq i64 %2, 0
  br i1 %.not, label %ma_pcm_deinterleave_s16__reference.exit, label %.preheader.lr.ph

.preheader.lr.ph:                                 ; preds = %4
  %.not5 = icmp eq i32 %3, 0
  %5 = zext i32 %3 to i64
  br i1 %.not5, label %ma_pcm_deinterleave_s16__reference.exit, label %.preheader.us

.preheader.us:                                    ; preds = %.preheader.lr.ph, %._crit_edge.us
  %.014.i4.us = phi i64 [ %14, %._crit_edge.us ], [ 0, %.preheader.lr.ph ]
  %6 = mul i64 %.014.i4.us, %5
  %7 = getelementptr i16, ptr %1, i64 %6
  br label %8

8:                                                ; preds = %.preheader.us, %8
  %indvars.iv = phi i64 [ 0, %.preheader.us ], [ %indvars.iv.next, %8 ]
  %9 = getelementptr i16, ptr %7, i64 %indvars.iv
  %10 = load i16, ptr %9, align 2, !tbaa !334
  %11 = getelementptr inbounds nuw ptr, ptr %0, i64 %indvars.iv
  %12 = load ptr, ptr %11, align 8, !tbaa !389
  %13 = getelementptr inbounds nuw i16, ptr %12, i64 %.014.i4.us
  store i16 %10, ptr %13, align 2, !tbaa !334
  %indvars.iv.next = add nuw nsw i64 %indvars.iv, 1
  %exitcond.not = icmp eq i64 %indvars.iv.next, %5
  br i1 %exitcond.not, label %._crit_edge.us, label %8, !llvm.loop !393

._crit_edge.us:                                   ; preds = %8
  %14 = add nuw i64 %.014.i4.us, 1
  %exitcond8.not = icmp eq i64 %14, %2
  br i1 %exitcond8.not, label %ma_pcm_deinterleave_s16__reference.exit, label %.preheader.us, !llvm.loop !394

ma_pcm_deinterleave_s16__reference.exit:          ; preds = %._crit_edge.us, %.preheader.lr.ph, %4
  ret void
}